; Function Attrs: nounwind uwtable
define internal ptr @_hmac_repr(ptr noundef %0) #0 {
  %2 = getelementptr inbounds nuw i8, ptr %0, i64 16
  %3 = load ptr, ptr %2, align 8, !tbaa !3
  %4 = tail call ptr @HMAC_CTX_get_md(ptr noundef %3) #9
  %5 = tail call i32 @EVP_MD_get_type(ptr noundef %4) #9
  %6 = icmp eq i32 %5, 4
  br i1 %6, label %py_digest_name.exit, label %.lr.ph

.lr.ph:                                           ; preds = %1, %9
  %.015.i10 = phi ptr [ %7, %9 ], [ @py_hashes, %1 ]
  %7 = getelementptr i8, ptr %.015.i10, i64 48
  %8 = load ptr, ptr %7, align 8, !tbaa !13
  %.not.i8 = icmp eq ptr %8, null
  br i1 %.not.i8, label %13, label %9, !llvm.loop !18

9:                                                ; preds = %.lr.ph
  %10 = getelementptr i8, ptr %.015.i10, i64 72
  %11 = load i32, ptr %10, align 8, !tbaa !20
  %12 = icmp eq i32 %11, %5
  br i1 %12, label %py_digest_name.exit, label %.lr.ph, !llvm.loop !18

13:                                               ; preds = %.lr.ph
  %14 = tail call ptr @OBJ_nid2ln(i32 noundef %5) #9
  %15 = icmp eq ptr %14, null
  br i1 %15, label %16, label %py_digest_name.exit

16:                                               ; preds = %13
  %17 = tail call ptr @OBJ_nid2sn(i32 noundef %5) #9
  br label %py_digest_name.exit

py_digest_name.exit:                              ; preds = %9, %1, %13, %16
  %.1.i = phi ptr [ %17, %16 ], [ %14, %13 ], [ @.str.3, %1 ], [ %8, %9 ]
  %18 = tail call ptr @PyUnicode_FromString(ptr noundef %.1.i) #9
  %19 = icmp eq ptr %18, null
  br i1 %19, label %Py_DECREF.exit, label %20

20:                                               ; preds = %py_digest_name.exit
  %21 = tail call ptr (ptr, ...) @PyUnicode_FromFormat(ptr noundef nonnull @.str.2, ptr noundef nonnull %18, ptr noundef %0) #9
  %22 = load i32, ptr %18, align 8, !tbaa !21
  %.not.i = icmp sgt i32 %22, -1
  br i1 %.not.i, label %23, label %Py_DECREF.exit

23:                                               ; preds = %20
  %24 = add nsw i32 %22, -1
  store i32 %24, ptr %18, align 8, !tbaa !21
  %25 = icmp eq i32 %24, 0
  br i1 %25, label %26, label %Py_DECREF.exit

26:                                               ; preds = %23
  tail call void @_Py_Dealloc(ptr noundef nonnull %18) #9
  br label %Py_DECREF.exit

Py_DECREF.exit:                                   ; preds = %26, %23, %20, %py_digest_name.exit
  %.0 = phi ptr [ null, %py_digest_name.exit ], [ %21, %20 ], [ %21, %23 ], [ %21, %26 ]
  ret ptr %.0
}